; Function Attrs: nounwind uwtable
define void @Aig_ManRegManStop(ptr noundef captures(none) %0) local_unnamed_addr #0 {
  %2 = getelementptr inbounds nuw i8, ptr %0, i64 8
  %3 = load ptr, ptr %2, align 8, !tbaa !14
  %4 = getelementptr i8, ptr %3, i64 4
  %.val11.i = load i32, ptr %4, align 4, !tbaa !46
  %5 = icmp sgt i32 %.val11.i, 0
  br i1 %5, label %.lr.ph.i, label %.critedge.i

.lr.ph.i:                                         ; preds = %1
  %6 = getelementptr i8, ptr %3, i64 8
  br label %7

7:                                                ; preds = %14, %.lr.ph.i
  %.val14.i = phi i32 [ %.val11.i, %.lr.ph.i ], [ %.val.i, %14 ]
  %indvars.iv.i = phi i64 [ 0, %.lr.ph.i ], [ %indvars.iv.next.i, %14 ]
  %.val8.i = load ptr, ptr %6, align 8, !tbaa !48
  %8 = getelementptr inbounds nuw ptr, ptr %.val8.i, i64 %indvars.iv.i
  %9 = load ptr, ptr %8, align 8, !tbaa !49
  %.not.i = icmp eq ptr %9, null
  br i1 %.not.i, label %14, label %10

10:                                               ; preds = %7
  %11 = getelementptr inbounds nuw i8, ptr %9, i64 8
  %12 = load ptr, ptr %11, align 8, !tbaa !19
  %.not.i.i = icmp eq ptr %12, null
  br i1 %.not.i.i, label %Vec_PtrFree.exit.i, label %13

13:                                               ; preds = %10
  tail call void @free(ptr noundef nonnull %12) #12
  br label %Vec_PtrFree.exit.i

Vec_PtrFree.exit.i:                               ; preds = %13, %10
  tail call void @free(ptr noundef nonnull %9) #12
  %.val.pre.i = load i32, ptr %4, align 4, !tbaa !46
  br label %14

14:                                               ; preds = %Vec_PtrFree.exit.i, %7
  %.val.i = phi i32 [ %.val14.i, %7 ], [ %.val.pre.i, %Vec_PtrFree.exit.i ]
  %indvars.iv.next.i = add nuw nsw i64 %indvars.iv.i, 1
  %15 = sext i32 %.val.i to i64
  %16 = icmp slt i64 %indvars.iv.next.i, %15
  br i1 %16, label %7, label %.critedge.i, !llvm.loop !50

.critedge.i:                                      ; preds = %14, %1
  %17 = getelementptr inbounds nuw i8, ptr %3, i64 8
  %18 = load ptr, ptr %17, align 8, !tbaa !19
  %.not.i9.i = icmp eq ptr %18, null
  br i1 %.not.i9.i, label %Vec_VecFree.exit, label %19

19:                                               ; preds = %.critedge.i
  tail call void @free(ptr noundef nonnull %18) #12
  br label %Vec_VecFree.exit

Vec_VecFree.exit:                                 ; preds = %.critedge.i, %19
  tail call void @free(ptr noundef nonnull %3) #12
  %20 = getelementptr inbounds nuw i8, ptr %0, i64 24
  %21 = load ptr, ptr %20, align 8, !tbaa !20
  %.not = icmp eq ptr %21, null
  br i1 %.not, label %39, label %22

22:                                               ; preds = %Vec_VecFree.exit
  %23 = getelementptr i8, ptr %21, i64 4
  %.val11.i21 = load i32, ptr %23, align 4, !tbaa !46
  %24 = icmp sgt i32 %.val11.i21, 0
  br i1 %24, label %.lr.ph.i24, label %.critedge.i22

.lr.ph.i24:                                       ; preds = %22
  %25 = getelementptr i8, ptr %21, i64 8
  br label %26

26:                                               ; preds = %33, %.lr.ph.i24
  %.val14.i25 = phi i32 [ %.val11.i21, %.lr.ph.i24 ], [ %.val.i32, %33 ]
  %indvars.iv.i26 = phi i64 [ 0, %.lr.ph.i24 ], [ %indvars.iv.next.i33, %33 ]
  %.val8.i27 = load ptr, ptr %25, align 8, !tbaa !48
  %27 = getelementptr inbounds nuw ptr, ptr %.val8.i27, i64 %indvars.iv.i26
  %28 = load ptr, ptr %27, align 8, !tbaa !49
  %.not.i28 = icmp eq ptr %28, null
  br i1 %.not.i28, label %33, label %29

29:                                               ; preds = %26
  %30 = getelementptr inbounds nuw i8, ptr %28, i64 8
  %31 = load ptr, ptr %30, align 8, !tbaa !19
  %.not.i.i29 = icmp eq ptr %31, null
  br i1 %.not.i.i29, label %Vec_PtrFree.exit.i30, label %32

32:                                               ; preds = %29
  tail call void @free(ptr noundef nonnull %31) #12
  br label %Vec_PtrFree.exit.i30

Vec_PtrFree.exit.i30:                             ; preds = %32, %29
  tail call void @free(ptr noundef nonnull %28) #12
  %.val.pre.i31 = load i32, ptr %23, align 4, !tbaa !46
  br label %33

33:                                               ; preds = %Vec_PtrFree.exit.i30, %26
  %.val.i32 = phi i32 [ %.val14.i25, %26 ], [ %.val.pre.i31, %Vec_PtrFree.exit.i30 ]
  %indvars.iv.next.i33 = add nuw nsw i64 %indvars.iv.i26, 1
  %34 = sext i32 %.val.i32 to i64
  %35 = icmp slt i64 %indvars.iv.next.i33, %34
  br i1 %35, label %26, label %.critedge.i22, !llvm.loop !50

.critedge.i22:                                    ; preds = %33, %22
  %36 = getelementptr inbounds nuw i8, ptr %21, i64 8
  %37 = load ptr, ptr %36, align 8, !tbaa !19
  %.not.i9.i23 = icmp eq ptr %37, null
  br i1 %.not.i9.i23, label %Vec_VecFree.exit34, label %38

38:                                               ; preds = %.critedge.i22
  tail call void @free(ptr noundef nonnull %37) #12
  br label %Vec_VecFree.exit34

Vec_VecFree.exit34:                               ; preds = %.critedge.i22, %38
  tail call void @free(ptr noundef nonnull %21) #12
  br label %39

39:                                               ; preds = %Vec_VecFree.exit34, %Vec_VecFree.exit
  %40 = getelementptr inbounds nuw i8, ptr %0, i64 40
  %41 = load ptr, ptr %40, align 8, !tbaa !26
  %42 = getelementptr inbounds nuw i8, ptr %41, i64 8
  %43 = load ptr, ptr %42, align 8, !tbaa !25
  %.not.i35 = icmp eq ptr %43, null
  br i1 %.not.i35, label %Vec_IntFree.exit, label %44

44:                                               ; preds = %39
  tail call void @free(ptr noundef nonnull %43) #12
  br label %Vec_IntFree.exit

Vec_IntFree.exit:                                 ; preds = %39, %44
  tail call void @free(ptr noundef nonnull %41) #12
  %45 = getelementptr inbounds nuw i8, ptr %0, i64 48
  %46 = load ptr, ptr %45, align 8, !tbaa !27
  %47 = getelementptr inbounds nuw i8, ptr %46, i64 8
  %48 = load ptr, ptr %47, align 8, !tbaa !25
  %.not.i36 = icmp eq ptr %48, null
  br i1 %.not.i36, label %Vec_IntFree.exit37, label %49

49:                                               ; preds = %Vec_IntFree.exit
  tail call void @free(ptr noundef nonnull %48) #12
  br label %Vec_IntFree.exit37

Vec_IntFree.exit37:                               ; preds = %Vec_IntFree.exit, %49
  tail call void @free(ptr noundef nonnull %46) #12
  %50 = getelementptr inbounds nuw i8, ptr %0, i64 56
  %51 = load ptr, ptr %50, align 8, !tbaa !28
  %52 = getelementptr inbounds nuw i8, ptr %51, i64 8
  %53 = load ptr, ptr %52, align 8, !tbaa !25
  %.not.i38 = icmp eq ptr %53, null
  br i1 %.not.i38, label %Vec_IntFree.exit39, label %54

54:                                               ; preds = %Vec_IntFree.exit37
  tail call void @free(ptr noundef nonnull %53) #12
  br label %Vec_IntFree.exit39

Vec_IntFree.exit39:                               ; preds = %Vec_IntFree.exit37, %54
  tail call void @free(ptr noundef nonnull %51) #12
  %55 = getelementptr inbounds nuw i8, ptr %0, i64 64
  %56 = load ptr, ptr %55, align 8, !tbaa !34
  %57 = getelementptr inbounds nuw i8, ptr %56, i64 8
  %58 = load ptr, ptr %57, align 8, !tbaa !33
  %.not.i40 = icmp eq ptr %58, null
  br i1 %.not.i40, label %Vec_FltFree.exit, label %59

59:                                               ; preds = %Vec_IntFree.exit39
  tail call void @free(ptr noundef nonnull %58) #12
  br label %Vec_FltFree.exit

Vec_FltFree.exit:                                 ; preds = %Vec_IntFree.exit39, %59
  tail call void @free(ptr noundef nonnull %56) #12
  %60 = getelementptr inbounds nuw i8, ptr %0, i64 32
  %61 = load ptr, ptr %60, align 8, !tbaa !44
  %.not18 = icmp eq ptr %61, null
  br i1 %.not18, label %63, label %62

62:                                               ; preds = %Vec_FltFree.exit
  tail call void @free(ptr noundef nonnull %61) #12
  store ptr null, ptr %60, align 8, !tbaa !44
  br label %63

63:                                               ; preds = %Vec_FltFree.exit, %62
  %64 = getelementptr inbounds nuw i8, ptr %0, i64 72
  %65 = load ptr, ptr %64, align 8, !tbaa !45
  %.not19 = icmp eq ptr %65, null
  br i1 %.not19, label %67, label %66

66:                                               ; preds = %63
  tail call void @free(ptr noundef nonnull %65) #12
  br label %67

67:                                               ; preds = %63, %66
  tail call void @free(ptr noundef nonnull %0) #12
  ret void
}